(dp0
S's'
p1
(dp2
S'y'
p3
I252
sS'path'
p4
S'../resources/images/s'
p5
sS'x'
p6
I221
ssS'as'
p7
(dp8
S'y'
p9
I195
sS'path'
p10
S'../resources/images/as'
p11
sS'x'
p12
I539
ssS'boavista.png'
p13
(dp14
g3
I152
sg4
S'../resources/images/boavista.png'
p15
sg6
I509
ss.